; Function Attrs: mustprogress uwtable
define hidden noundef zeroext i1 @_ZNK6google8protobuf10TextFormat7Printer18PrintUnknownFieldsERKNS0_15UnknownFieldSetEPNS0_2io20ZeroCopyOutputStreamE(ptr noundef nonnull align 8 dereferenceable(136) %0, ptr noundef nonnull readonly align 8 captures(none) dereferenceable(24) %1, ptr noundef %2) local_unnamed_addr #3 align 2 personality ptr @__gxx_personality_v0 {
  %4 = alloca %"class.google::protobuf::TextFormat::Printer::TextGenerator", align 8
  call void @llvm.lifetime.start.p0(i64 40, ptr nonnull %4) #31
  %5 = load i32, ptr %0, align 8, !tbaa !51
  store ptr getelementptr inbounds nuw inrange(-16, 48) (i8, ptr @_ZTVN6google8protobuf10TextFormat7Printer13TextGeneratorE, i64 16), ptr %4, align 8, !tbaa !24
  %6 = getelementptr inbounds nuw i8, ptr %4, i64 8
  store ptr %2, ptr %6, align 8, !tbaa !52
  %7 = getelementptr inbounds nuw i8, ptr %4, i64 16
  store ptr null, ptr %7, align 8, !tbaa !56
  %8 = getelementptr inbounds nuw i8, ptr %4, i64 24
  store i32 0, ptr %8, align 8, !tbaa !57
  %9 = getelementptr inbounds nuw i8, ptr %4, i64 28
  store i8 1, ptr %9, align 4, !tbaa !58
  %10 = getelementptr inbounds nuw i8, ptr %4, i64 29
  store i8 0, ptr %10, align 1, !tbaa !59
  %11 = getelementptr inbounds nuw i8, ptr %4, i64 30
  store i8 0, ptr %11, align 2, !tbaa !60
  %12 = getelementptr inbounds nuw i8, ptr %4, i64 32
  store i32 %5, ptr %12, align 8, !tbaa !61
  %13 = getelementptr inbounds nuw i8, ptr %4, i64 36
  store i32 %5, ptr %13, align 4, !tbaa !62
  invoke void @_ZNK6google8protobuf10TextFormat7Printer18PrintUnknownFieldsERKNS0_15UnknownFieldSetEPNS2_13TextGeneratorEi(ptr noundef nonnull align 8 dereferenceable(136) %0, ptr noundef nonnull align 8 dereferenceable(24) %1, ptr noundef nonnull %4, i32 noundef 10)
          to label %14 unwind label %29

14:                                               ; preds = %3
  %15 = load i8, ptr %10, align 1, !tbaa !59, !range !49, !noundef !50
  %16 = trunc nuw i8 %15 to i1
  store ptr getelementptr inbounds nuw inrange(-16, 48) (i8, ptr @_ZTVN6google8protobuf10TextFormat7Printer13TextGeneratorE, i64 16), ptr %4, align 8, !tbaa !24
  br i1 %16, label %_ZN6google8protobuf10TextFormat7Printer13TextGeneratorD2Ev.exit, label %17

17:                                               ; preds = %14
  %18 = load i32, ptr %8, align 8, !tbaa !57
  %19 = icmp sgt i32 %18, 0
  br i1 %19, label %20, label %_ZN6google8protobuf10TextFormat7Printer13TextGeneratorD2Ev.exit

20:                                               ; preds = %17
  %21 = load ptr, ptr %6, align 8, !tbaa !52
  %22 = load ptr, ptr %21, align 8, !tbaa !24
  %23 = getelementptr inbounds nuw i8, ptr %22, i64 24
  %24 = load ptr, ptr %23, align 8
  invoke void %24(ptr noundef nonnull align 8 dereferenceable(8) %21, i32 noundef %18)
          to label %_ZN6google8protobuf10TextFormat7Printer13TextGeneratorD2Ev.exit unwind label %25

25:                                               ; preds = %20
  %26 = landingpad { ptr, i32 }
          catch ptr null
  %27 = extractvalue { ptr, i32 } %26, 0
  call void @__clang_call_terminate(ptr %27) #33
  unreachable

_ZN6google8protobuf10TextFormat7Printer13TextGeneratorD2Ev.exit: ; preds = %14, %17, %20
  %28 = xor i1 %16, true
  call void @llvm.lifetime.end.p0(i64 40, ptr nonnull %4) #31
  ret i1 %28

29:                                               ; preds = %3
  %30 = landingpad { ptr, i32 }
          cleanup
  call void @_ZN6google8protobuf10TextFormat7Printer13TextGeneratorD2Ev(ptr noundef nonnull align 8 dereferenceable(40) %4) #31
  call void @llvm.lifetime.end.p0(i64 40, ptr nonnull %4) #31
  resume { ptr, i32 } %30
}